target datalayout = "e-m:e-p270:32:32-p271:32:32-p272:64:64-i64:64-i128:128-f80:128-n8:16:32:64-S128"
target triple = "x86_64-unknown-linux-gnu"

%"class.google::protobuf::internal::ExplicitlyConstructed.128" = type { %"union.google::protobuf::internal::ExplicitlyConstructed<std::__cxx11::basic_string<char>, 8>::AlignedUnion" }
%"union.google::protobuf::internal::ExplicitlyConstructed<std::__cxx11::basic_string<char>, 8>::AlignedUnion" = type { i64, [24 x i8] }
%"class.google::protobuf::EnumValueDescriptor" = type { %"class.google::protobuf::internal::SymbolBaseN", %"class.google::protobuf::internal::SymbolBaseN.0", i32, ptr, ptr, ptr, ptr, ptr }
%"class.google::protobuf::internal::SymbolBaseN" = type { %"class.google::protobuf::internal::SymbolBase" }
%"class.google::protobuf::internal::SymbolBase" = type { i8 }
%"class.google::protobuf::internal::SymbolBaseN.0" = type { %"class.google::protobuf::internal::SymbolBase" }
%"class.std::__cxx11::basic_string" = type { %"struct.std::__cxx11::basic_string<char>::_Alloc_hider", i64, %union.anon }
%"struct.std::__cxx11::basic_string<char>::_Alloc_hider" = type { ptr }
%union.anon = type { i64, [8 x i8] }
%"class.google::protobuf::EnumDescriptor" = type { %"class.google::protobuf::internal::SymbolBase", i8, i16, i32, ptr, ptr, ptr, ptr, ptr, ptr, ptr, i32, i32, ptr, ptr }
%"class.absl::lts_20230802::log_internal::NullStream" = type { i8 }

@_ZN6google8protobuf8internal26fixed_address_empty_stringB5cxx11E = external global %"class.google::protobuf::internal::ExplicitlyConstructed.128", align 8

; Function Attrs: mustprogress nounwind uwtable
define linkonce_odr hidden noundef nonnull align 8 dereferenceable(32) ptr @_ZNK6google8protobuf8internal21ExplicitlyConstructedINSt7__cxx1112basic_stringIcSt11char_traitsIcESaIcEEELm8EE3getEv(ptr noundef nonnull align 8 dereferenceable(32) %this) #4 comdat align 2 {
entry:
  %this.addr = alloca ptr, align 8
  store ptr %this, ptr %this.addr, align 8
  %this1 = load ptr, ptr %this.addr, align 8
  %union_ = getelementptr inbounds %"class.google::protobuf::internal::ExplicitlyConstructed.128", ptr %this1, i32 0, i32 0
  ret ptr %union_
}

; Function Attrs: mustprogress nounwind uwtable
define linkonce_odr hidden noundef nonnull align 1 dereferenceable(1) ptr @_ZN4absl12lts_2023080212log_internal10NullStream14InternalStreamEv(ptr noundef nonnull align 1 dereferenceable(1) %this) #4 comdat align 2 {
entry:
  %this.addr = alloca ptr, align 8
  store ptr %this, ptr %this.addr, align 8
  %this1 = load ptr, ptr %this.addr, align 8
  ret ptr %this1
}

; Function Attrs: mustprogress uwtable
define linkonce_odr noundef nonnull align 8 dereferenceable(32) ptr @_ZN6google8protobuf8internal27GetEmptyStringAlreadyInitedB5cxx11Ev() #5 comdat {
entry:
  %call = call noundef nonnull align 8 dereferenceable(32) ptr @_ZNK6google8protobuf8internal21ExplicitlyConstructedINSt7__cxx1112basic_stringIcSt11char_traitsIcESaIcEEELm8EE3getEv(ptr noundef nonnull align 8 dereferenceable(32) @_ZN6google8protobuf8internal26fixed_address_empty_stringB5cxx11E)
  ret ptr %call
}

; Function Attrs: mustprogress nounwind uwtable
define linkonce_odr hidden noundef nonnull align 8 dereferenceable(32) ptr @_ZNK6google8protobuf19EnumValueDescriptor4nameB5cxx11Ev(ptr noundef nonnull align 8 dereferenceable(48) %this) #4 comdat align 2 {
entry:
  %this.addr = alloca ptr, align 8
  store ptr %this, ptr %this.addr, align 8
  %this1 = load ptr, ptr %this.addr, align 8
  %all_names_ = getelementptr inbounds %"class.google::protobuf::EnumValueDescriptor", ptr %this1, i32 0, i32 3
  %0 = load ptr, ptr %all_names_, align 8
  %arrayidx = getelementptr inbounds %"class.std::__cxx11::basic_string", ptr %0, i64 0
  ret ptr %arrayidx
}

; Function Attrs: mustprogress nounwind uwtable
define linkonce_odr hidden noundef i32 @_ZNK6google8protobuf19EnumValueDescriptor6numberEv(ptr noundef nonnull align 8 dereferenceable(48) %this) #4 comdat align 2 {
entry:
  %this.addr = alloca ptr, align 8
  store ptr %this, ptr %this.addr, align 8
  %this1 = load ptr, ptr %this.addr, align 8
  %number_ = getelementptr inbounds %"class.google::protobuf::EnumValueDescriptor", ptr %this1, i32 0, i32 2
  %0 = load i32, ptr %number_, align 4
  ret i32 %0
}

; Function Attrs: mustprogress uwtable
define linkonce_odr hidden noundef ptr @_ZNK6google8protobuf14EnumDescriptor5valueEi(ptr noundef nonnull align 8 dereferenceable(88) %this, i32 noundef %index) #5 comdat align 2 {
entry:
  %this.addr = alloca ptr, align 8
  %index.addr = alloca i32, align 4
  %ref.tmp = alloca %"class.absl::lts_20230802::log_internal::NullStream", align 1
  %ref.tmp4 = alloca %"class.absl::lts_20230802::log_internal::NullStream", align 1
  store ptr %this, ptr %this.addr, align 8
  store i32 %index, ptr %index.addr, align 4
  %this1 = load ptr, ptr %this.addr, align 8
  br label %while.cond

while.cond:                                       ; preds = %while.body, %entry
  br i1 false, label %while.body, label %while.end

while.body:                                       ; preds = %while.cond
  %call = call noundef nonnull align 1 dereferenceable(1) ptr @_ZN4absl12lts_2023080212log_internal10NullStream14InternalStreamEv(ptr noundef nonnull align 1 dereferenceable(1) %ref.tmp)
  br label %while.cond, !llvm.loop !7

while.end:                                        ; preds = %while.cond
  br label %while.cond2

while.cond2:                                      ; preds = %while.body3, %while.end
  br i1 false, label %while.body3, label %while.end6

while.body3:                                      ; preds = %while.cond2
  %call5 = call noundef nonnull align 1 dereferenceable(1) ptr @_ZN4absl12lts_2023080212log_internal10NullStream14InternalStreamEv(ptr noundef nonnull align 1 dereferenceable(1) %ref.tmp4)
  br label %while.cond2, !llvm.loop !8

while.end6:                                       ; preds = %while.cond2
  %values_ = getelementptr inbounds %"class.google::protobuf::EnumDescriptor", ptr %this1, i32 0, i32 10
  %0 = load ptr, ptr %values_, align 8
  %1 = load i32, ptr %index.addr, align 4
  %idx.ext = sext i32 %1 to i64
  %add.ptr = getelementptr inbounds %"class.google::protobuf::EnumValueDescriptor", ptr %0, i64 %idx.ext
  ret ptr %add.ptr
}

; Function Attrs: mustprogress nounwind uwtable
define linkonce_odr hidden noundef i32 @_ZNK6google8protobuf14EnumDescriptor11value_countEv(ptr noundef nonnull align 8 dereferenceable(88) %this) #4 comdat align 2 {
entry:
  %this.addr = alloca ptr, align 8
  store ptr %this, ptr %this.addr, align 8
  %this1 = load ptr, ptr %this.addr, align 8
  %value_count_ = getelementptr inbounds %"class.google::protobuf::EnumDescriptor", ptr %this1, i32 0, i32 3
  %0 = load i32, ptr %value_count_, align 4
  ret i32 %0
}

; Function Attrs: mustprogress uwtable
define hidden noundef ptr @_ZN6google8protobuf8internal18MakeDenseEnumCacheB5cxx11EPKNS0_14EnumDescriptorEii(ptr noundef %desc, i32 noundef %min_val, i32 noundef %max_val) #5 {
entry:
  %desc.addr = alloca ptr, align 8
  %min_val.addr = alloca i32, align 4
  %max_val.addr = alloca i32, align 4
  %str_ptrs = alloca ptr, align 8
  %count = alloca i32, align 4
  %i = alloca i32, align 4
  %num = alloca i32, align 4
  %i11 = alloca i32, align 4
  store ptr %desc, ptr %desc.addr, align 8
  store i32 %min_val, ptr %min_val.addr, align 4
  store i32 %max_val, ptr %max_val.addr, align 4
  %0 = load i32, ptr %max_val.addr, align 4
  %1 = load i32, ptr %min_val.addr, align 4
  %sub = sub nsw i32 %0, %1
  %add = add nsw i32 %sub, 1
  %conv = sext i32 %add to i64
  %2 = call { i64, i1 } @llvm.umul.with.overflow.i64(i64 %conv, i64 8)
  %3 = extractvalue { i64, i1 } %2, 1
  %4 = extractvalue { i64, i1 } %2, 0
  %5 = select i1 %3, i64 -1, i64 %4
  %call = call noalias noundef nonnull ptr @_Znam(i64 noundef %5) #20
  call void @llvm.memset.p0.i64(ptr align 8 %call, i8 0, i64 %5, i1 false)
  store ptr %call, ptr %str_ptrs, align 8
  %6 = load ptr, ptr %desc.addr, align 8
  %call1 = call noundef i32 @_ZNK6google8protobuf14EnumDescriptor11value_countEv(ptr noundef nonnull align 8 dereferenceable(88) %6)
  store i32 %call1, ptr %count, align 4
  store i32 0, ptr %i, align 4
  br label %for.cond

for.cond:                                         ; preds = %for.inc, %entry
  %7 = load i32, ptr %i, align 4
  %8 = load i32, ptr %count, align 4
  %cmp = icmp slt i32 %7, %8
  br i1 %cmp, label %for.body, label %for.end

for.body:                                         ; preds = %for.cond
  %9 = load ptr, ptr %desc.addr, align 8
  %10 = load i32, ptr %i, align 4
  %call2 = call noundef ptr @_ZNK6google8protobuf14EnumDescriptor5valueEi(ptr noundef nonnull align 8 dereferenceable(88) %9, i32 noundef %10)
  %call3 = call noundef i32 @_ZNK6google8protobuf19EnumValueDescriptor6numberEv(ptr noundef nonnull align 8 dereferenceable(48) %call2)
  store i32 %call3, ptr %num, align 4
  %11 = load ptr, ptr %str_ptrs, align 8
  %12 = load i32, ptr %num, align 4
  %13 = load i32, ptr %min_val.addr, align 4
  %sub4 = sub nsw i32 %12, %13
  %idxprom = sext i32 %sub4 to i64
  %arrayidx = getelementptr inbounds ptr, ptr %11, i64 %idxprom
  %14 = load ptr, ptr %arrayidx, align 8
  %cmp5 = icmp eq ptr %14, null
  br i1 %cmp5, label %if.then, label %if.end

if.then:                                          ; preds = %for.body
  %15 = load ptr, ptr %desc.addr, align 8
  %16 = load i32, ptr %i, align 4
  %call6 = call noundef ptr @_ZNK6google8protobuf14EnumDescriptor5valueEi(ptr noundef nonnull align 8 dereferenceable(88) %15, i32 noundef %16)
  %call7 = call noundef nonnull align 8 dereferenceable(32) ptr @_ZNK6google8protobuf19EnumValueDescriptor4nameB5cxx11Ev(ptr noundef nonnull align 8 dereferenceable(48) %call6)
  %17 = load ptr, ptr %str_ptrs, align 8
  %18 = load i32, ptr %num, align 4
  %19 = load i32, ptr %min_val.addr, align 4
  %sub8 = sub nsw i32 %18, %19
  %idxprom9 = sext i32 %sub8 to i64
  %arrayidx10 = getelementptr inbounds ptr, ptr %17, i64 %idxprom9
  store ptr %call7, ptr %arrayidx10, align 8
  br label %if.end

if.end:                                           ; preds = %if.then, %for.body
  br label %for.inc

for.inc:                                          ; preds = %if.end
  %20 = load i32, ptr %i, align 4
  %inc = add nsw i32 %20, 1
  store i32 %inc, ptr %i, align 4
  br label %for.cond, !llvm.loop !4

for.end:                                          ; preds = %for.cond
  store i32 0, ptr %i11, align 4
  br label %for.cond12

for.cond12:                                       ; preds = %for.inc25, %for.end
  %21 = load i32, ptr %i11, align 4
  %22 = load i32, ptr %max_val.addr, align 4
  %23 = load i32, ptr %min_val.addr, align 4
  %sub13 = sub nsw i32 %22, %23
  %add14 = add nsw i32 %sub13, 1
  %cmp15 = icmp slt i32 %21, %add14
  br i1 %cmp15, label %for.body16, label %for.end27

for.body16:                                       ; preds = %for.cond12
  %24 = load ptr, ptr %str_ptrs, align 8
  %25 = load i32, ptr %i11, align 4
  %idxprom17 = sext i32 %25 to i64
  %arrayidx18 = getelementptr inbounds ptr, ptr %24, i64 %idxprom17
  %26 = load ptr, ptr %arrayidx18, align 8
  %cmp19 = icmp eq ptr %26, null
  br i1 %cmp19, label %if.then20, label %if.end24

if.then20:                                        ; preds = %for.body16
  %call21 = call noundef nonnull align 8 dereferenceable(32) ptr @_ZN6google8protobuf8internal27GetEmptyStringAlreadyInitedB5cxx11Ev()
  %27 = load ptr, ptr %str_ptrs, align 8
  %28 = load i32, ptr %i11, align 4
  %idxprom22 = sext i32 %28 to i64
  %arrayidx23 = getelementptr inbounds ptr, ptr %27, i64 %idxprom22
  store ptr %call21, ptr %arrayidx23, align 8
  br label %if.end24

if.end24:                                         ; preds = %if.then20, %for.body16
  br label %for.inc25

for.inc25:                                        ; preds = %if.end24
  %29 = load i32, ptr %i11, align 4
  %inc26 = add nsw i32 %29, 1
  store i32 %inc26, ptr %i11, align 4
  br label %for.cond12, !llvm.loop !6

for.end27:                                        ; preds = %for.cond12
  %30 = load ptr, ptr %str_ptrs, align 8
  ret ptr %30
}