; Function Attrs: mustprogress uwtable
define hidden noalias noundef nonnull ptr @_ZN6google8protobuf8internal18MakeDenseEnumCacheB5cxx11EPKNS0_14EnumDescriptorEii(ptr nocapture noundef readonly %desc, i32 noundef %min_val, i32 noundef %max_val) local_unnamed_addr #4 {
entry:
  %sub = sub nsw i32 %max_val, %min_val
  %add = add nsw i32 %sub, 1
  %conv = zext nneg i32 %add to i64
  %0 = icmp slt i32 %sub, -1
  %1 = shl nuw nsw i64 %conv, 3
  %2 = select i1 %0, i64 -1, i64 %1
  %call = tail call noalias noundef nonnull ptr @_Znam(i64 noundef %2) #27
  tail call void @llvm.memset.p0.i64(ptr nonnull align 8 %call, i8 0, i64 %2, i1 false)
  %value_count_.i = getelementptr inbounds i8, ptr %desc, i64 4
  %3 = load i32, ptr %value_count_.i, align 4
  %cmp21 = icmp sgt i32 %3, 0
  br i1 %cmp21, label %for.body.lr.ph, label %for.cond12.preheader

for.body.lr.ph:                                   ; preds = %entry
  %values_.i = getelementptr inbounds i8, ptr %desc, i64 56
  %4 = load ptr, ptr %values_.i, align 8
  %wide.trip.count = zext nneg i32 %3 to i64
  br label %for.body

for.cond12.preheader:                             ; preds = %for.inc, %entry
  %cmp15.not23 = icmp slt i32 %sub, 0
  br i1 %cmp15.not23, label %for.end27, label %for.body16.preheader

for.body16.preheader:                             ; preds = %for.cond12.preheader
  %5 = add i32 %max_val, 1
  %6 = sub i32 %5, %min_val
  %wide.trip.count29 = zext i32 %6 to i64
  br label %for.body16

for.body:                                         ; preds = %for.body.lr.ph, %for.inc
  %indvars.iv = phi i64 [ 0, %for.body.lr.ph ], [ %indvars.iv.next, %for.inc ]
  %add.ptr.i = getelementptr inbounds %"class.google::protobuf::EnumValueDescriptor", ptr %4, i64 %indvars.iv
  %number_.i = getelementptr inbounds i8, ptr %add.ptr.i, i64 4
  %7 = load i32, ptr %number_.i, align 4
  %sub4 = sub nsw i32 %7, %min_val
  %idxprom = sext i32 %sub4 to i64
  %arrayidx = getelementptr inbounds ptr, ptr %call, i64 %idxprom
  %8 = load ptr, ptr %arrayidx, align 8
  %cmp5 = icmp eq ptr %8, null
  br i1 %cmp5, label %if.then, label %for.inc

if.then:                                          ; preds = %for.body
  %all_names_.i = getelementptr inbounds i8, ptr %add.ptr.i, i64 8
  %9 = load ptr, ptr %all_names_.i, align 8
  store ptr %9, ptr %arrayidx, align 8
  br label %for.inc

for.inc:                                          ; preds = %for.body, %if.then
  %indvars.iv.next = add nuw nsw i64 %indvars.iv, 1
  %exitcond.not = icmp eq i64 %indvars.iv.next, %wide.trip.count
  br i1 %exitcond.not, label %for.cond12.preheader, label %for.body, !llvm.loop !4

for.body16:                                       ; preds = %for.body16.preheader, %for.inc25
  %indvars.iv26 = phi i64 [ 0, %for.body16.preheader ], [ %indvars.iv.next27, %for.inc25 ]
  %arrayidx18 = getelementptr inbounds ptr, ptr %call, i64 %indvars.iv26
  %10 = load ptr, ptr %arrayidx18, align 8
  %cmp19 = icmp eq ptr %10, null
  br i1 %cmp19, label %if.then20, label %for.inc25

if.then20:                                        ; preds = %for.body16
  store ptr @_ZN6google8protobuf8internal26fixed_address_empty_stringB5cxx11E, ptr %arrayidx18, align 8
  br label %for.inc25

for.inc25:                                        ; preds = %for.body16, %if.then20
  %indvars.iv.next27 = add nuw nsw i64 %indvars.iv26, 1
  %exitcond30.not = icmp eq i64 %indvars.iv.next27, %wide.trip.count29
  br i1 %exitcond30.not, label %for.end27, label %for.body16, !llvm.loop !6

for.end27:                                        ; preds = %for.inc25, %for.cond12.preheader
  ret ptr %call
}